target datalayout = "e-m:e-p270:32:32-p271:32:32-p272:64:64-i64:64-i128:128-f80:128-n8:16:32:64-S128"
target triple = "x86_64-pc-linux-gnu"

%struct.dlist_node = type { ptr, ptr }
%struct.PGPROC = type { %struct.dlist_node, ptr, ptr, i32, %struct.Latch, i32, i32, i32, i32, %struct.anon, i32, i32, i32, i8, i8, i8, i8, %struct.proclist_node, %struct.proclist_node, ptr, ptr, i32, i32, %struct.pg_atomic_uint64, i32, i8, i64, i32, %struct.dlist_node, [16 x %struct.dlist_head], %struct.XidCacheStatus, %struct.XidCache, i8, %struct.pg_atomic_uint32, i32, i32, i8, %struct.pg_atomic_uint32, i32, i32, i64, i64, %struct.LWLock, ptr, ptr, i8, i32, ptr, %struct.dlist_head, %struct.dlist_node }
%struct.Latch = type { i32, i32, i8, i32 }
%struct.anon = type { i32, i32 }
%struct.proclist_node = type { i32, i32 }
%struct.pg_atomic_uint64 = type { i64 }
%struct.XidCacheStatus = type { i8, i8 }
%struct.XidCache = type { [64 x i32] }
%struct.pg_atomic_uint32 = type { i32 }
%struct.LWLock = type { i16, %struct.pg_atomic_uint32, %struct.proclist_head }
%struct.proclist_head = type { i32, i32 }
%struct.dlist_head = type { %struct.dlist_node }

@myTempNamespace = internal global i32 0, align 4
@myTempToastNamespace = internal global i32 0, align 4
@baseSearchPathValid = internal global i8 1, align 1
@searchPathCacheValid = internal global i8 0, align 1
@myTempNamespaceSubID = internal global i32 0, align 4
@MyProc = external global ptr, align 8

; Function Attrs: nounwind uwtable
define dso_local void @AtEOSubXact_Namespace(i1 noundef zeroext %0, i32 noundef %1, i32 noundef %2) #0 {
  %4 = alloca i8, align 1
  %5 = alloca i32, align 4
  %6 = alloca i32, align 4
  %7 = zext i1 %0 to i8
  store i8 %7, ptr %4, align 1
  store i32 %1, ptr %5, align 4
  store i32 %2, ptr %6, align 4
  %8 = load i32, ptr @myTempNamespaceSubID, align 4
  %9 = load i32, ptr %5, align 4
  %10 = icmp eq i32 %8, %9
  br i1 %10, label %11, label %20

11:                                               ; preds = %3
  %12 = load i8, ptr %4, align 1, !range !4, !noundef !5
  %13 = trunc i8 %12 to i1
  br i1 %13, label %14, label %16

14:                                               ; preds = %11
  %15 = load i32, ptr %6, align 4
  store i32 %15, ptr @myTempNamespaceSubID, align 4
  br label %19

16:                                               ; preds = %11
  store i32 0, ptr @myTempNamespaceSubID, align 4
  store i32 0, ptr @myTempNamespace, align 4
  store i32 0, ptr @myTempToastNamespace, align 4
  store i8 0, ptr @baseSearchPathValid, align 1
  store i8 0, ptr @searchPathCacheValid, align 1
  %17 = load ptr, ptr @MyProc, align 8
  %18 = getelementptr inbounds nuw %struct.PGPROC, ptr %17, i32 0, i32 12
  store i32 0, ptr %18, align 4
  br label %19

19:                                               ; preds = %16, %14
  br label %20

20:                                               ; preds = %19, %3
  ret void
}