; Function Attrs: mustprogress nofree norecurse nosync nounwind willreturn memory(readwrite, argmem: write, inaccessiblemem: none) uwtable
define dso_local void @AtEOSubXact_Namespace(i1 noundef zeroext %0, i32 noundef %1, i32 noundef %2) local_unnamed_addr #10 {
  %4 = load i32, ptr @myTempNamespaceSubID, align 4
  %5 = icmp eq i32 %4, %1
  br i1 %5, label %6, label %11

6:                                                ; preds = %3
  br i1 %0, label %7, label %8

7:                                                ; preds = %6
  store i32 %2, ptr @myTempNamespaceSubID, align 4
  br label %11

8:                                                ; preds = %6
  store i32 0, ptr @myTempNamespaceSubID, align 4
  store i32 0, ptr @myTempNamespace, align 4
  store i32 0, ptr @myTempToastNamespace, align 4
  store i1 true, ptr @baseSearchPathValid, align 1
  store i1 false, ptr @searchPathCacheValid, align 1
  %9 = load ptr, ptr @MyProc, align 8
  %10 = getelementptr inbounds nuw i8, ptr %9, i64 84
  store i32 0, ptr %10, align 4
  br label %11

11:                                               ; preds = %7, %8, %3
  ret void
}